; ModuleID = '7/477.c'
source_filename = "7/477.c"
target datalayout = "e-m:e-p270:32:32-p271:32:32-p272:64:64-i64:64-f80:128-n8:16:32:64-S128"
target triple = "x86_64-pc-linux-gnu"

; Function Attrs: noinline nounwind uwtable
define dso_local i8* @strrpl(i8* %0, i8* %1, i8* %2) #0 {
  %4 = alloca i8*, align 8
  %5 = alloca i8*, align 8
  %6 = alloca i8*, align 8
  %7 = alloca i8*, align 8
  %8 = alloca i8*, align 8
  %9 = alloca i32, align 4
  %10 = alloca i32, align 4
  store i8* %0, i8** %5, align 8
  store i8* %1, i8** %6, align 8
  store i8* %2, i8** %7, align 8
  %11 = load i8*, i8** %5, align 8
  %12 = load i8*, i8** %6, align 8
  %13 = call i8* @strstr(i8* %11, i8* %12) #4
  store i8* %13, i8** %8, align 8
  %14 = load i8*, i8** %8, align 8
  %15 = icmp eq i8* %14, null
  br i1 %15, label %16, label %18

16:                                               ; preds = %3
  %17 = load i8*, i8** %5, align 8
  store i8* %17, i8** %4, align 8
  br label %44

18:                                               ; preds = %3
  %19 = load i8*, i8** %6, align 8
  %20 = call i64 @strlen(i8* %19) #4
  %21 = trunc i64 %20 to i32
  store i32 %21, i32* %9, align 4
  %22 = load i8*, i8** %7, align 8
  %23 = call i64 @strlen(i8* %22) #4
  %24 = trunc i64 %23 to i32
  store i32 %24, i32* %10, align 4
  %25 = load i8*, i8** %8, align 8
  %26 = load i32, i32* %10, align 4
  %27 = sext i32 %26 to i64
  %28 = getelementptr inbounds i8, i8* %25, i64 %27
  %29 = load i8*, i8** %8, align 8
  %30 = load i32, i32* %9, align 4
  %31 = sext i32 %30 to i64
  %32 = getelementptr inbounds i8, i8* %29, i64 %31
  %33 = load i8*, i8** %8, align 8
  %34 = load i32, i32* %9, align 4
  %35 = sext i32 %34 to i64
  %36 = getelementptr inbounds i8, i8* %33, i64 %35
  %37 = call i64 @strlen(i8* %36) #4
  %38 = add i64 %37, 1
  call void @llvm.memmove.p0i8.p0i8.i64(i8* align 1 %28, i8* align 1 %32, i64 %38, i1 false)
  %39 = load i8*, i8** %8, align 8
  %40 = load i8*, i8** %7, align 8
  %41 = load i32, i32* %10, align 4
  %42 = sext i32 %41 to i64
  call void @llvm.memcpy.p0i8.p0i8.i64(i8* align 1 %39, i8* align 1 %40, i64 %42, i1 false)
  %43 = load i8*, i8** %5, align 8
  store i8* %43, i8** %4, align 8
  br label %44

44:                                               ; preds = %18, %16
  %45 = load i8*, i8** %4, align 8
  ret i8* %45
}

; Function Attrs: nounwind readonly
declare dso_local i8* @strstr(i8*, i8*) #1

; Function Attrs: nounwind readonly
declare dso_local i64 @strlen(i8*) #1

; Function Attrs: argmemonly nounwind willreturn
declare void @llvm.memmove.p0i8.p0i8.i64(i8* nocapture, i8* nocapture readonly, i64, i1 immarg) #2

; Function Attrs: argmemonly nounwind willreturn
declare void @llvm.memcpy.p0i8.p0i8.i64(i8* noalias nocapture writeonly, i8* noalias nocapture readonly, i64, i1 immarg) #2

; Function Attrs: noinline nounwind uwtable
define dso_local i32 @main() #0 {
  %1 = alloca [256 x i8], align 16
  %2 = alloca [256 x i8], align 16
  %3 = alloca [256 x i8], align 16
  %4 = getelementptr inbounds [256 x i8], [256 x i8]* %1, i64 0, i64 0
  %5 = call i32 (i8*, ...) bitcast (i32 (...)* @gets to i32 (i8*, ...)*)(i8* %4)
  %6 = getelementptr inbounds [256 x i8], [256 x i8]* %2, i64 0, i64 0
  %7 = call i32 (i8*, ...) bitcast (i32 (...)* @gets to i32 (i8*, ...)*)(i8* %6)
  %8 = getelementptr inbounds [256 x i8], [256 x i8]* %3, i64 0, i64 0
  %9 = call i32 (i8*, ...) bitcast (i32 (...)* @gets to i32 (i8*, ...)*)(i8* %8)
  %10 = getelementptr inbounds [256 x i8], [256 x i8]* %1, i64 0, i64 0
  %11 = getelementptr inbounds [256 x i8], [256 x i8]* %2, i64 0, i64 0
  %12 = getelementptr inbounds [256 x i8], [256 x i8]* %3, i64 0, i64 0
  %13 = call i8* @strrpl(i8* %10, i8* %11, i8* %12)
  %14 = call i32 @puts(i8* %13)
  ret i32 0
}

declare dso_local i32 @gets(...) #3

declare dso_local i32 @puts(i8*) #3


!llvm.module.flags = !{!0}
!llvm.ident = !{!1}

!0 = !{i32 1, !"wchar_size", i32 4}
!1 = !{!"clang version 10.0.0-4ubuntu1 "}
